; Function Attrs: mustprogress nofree norecurse nosync nounwind willreturn memory(argmem: read) uwtable
define i32 @ff_nut_sp_pos_cmp(ptr noundef readonly captures(none) %0, ptr noundef readonly captures(none) %1) #3 {
  %3 = load i64, ptr %0, align 8, !tbaa !42
  %4 = load i64, ptr %1, align 8, !tbaa !42
  %5 = sub i64 %3, %4
  %6 = lshr i64 %5, 32
  %7 = sub i64 %4, %3
  %8 = lshr i64 %7, 32
  %9 = sub nsw i64 %6, %8
  %10 = trunc i64 %9 to i32
  ret i32 %10
}